; Function Attrs: mustprogress uwtable
define void @_ZN6google8protobuf8internal29CodedOutputStreamFieldSkipper15SkipUnknownEnumEii(ptr nocapture noundef nonnull readonly align 8 dereferenceable(16) %0, i32 noundef %1, i32 noundef %2) unnamed_addr #3 align 2 {
  %4 = getelementptr inbounds i8, ptr %0, i64 8
  %5 = load ptr, ptr %4, align 8
  %6 = getelementptr inbounds i8, ptr %5, i64 64
  %7 = load ptr, ptr %6, align 8
  %8 = load ptr, ptr %5, align 8
  %.not.i.i = icmp ugt ptr %8, %7
  br i1 %.not.i.i, label %_ZN6google8protobuf2io19EpsCopyOutputStream11EnsureSpaceEPh.exit.i, label %9

9:                                                ; preds = %3
  %10 = tail call noundef ptr @_ZN6google8protobuf2io19EpsCopyOutputStream19EnsureSpaceFallbackEPh(ptr noundef nonnull align 8 dereferenceable(59) %5, ptr noundef %7)
  br label %_ZN6google8protobuf2io19EpsCopyOutputStream11EnsureSpaceEPh.exit.i

_ZN6google8protobuf2io19EpsCopyOutputStream11EnsureSpaceEPh.exit.i: ; preds = %9, %3
  %.0.i.i = phi ptr [ %10, %9 ], [ %7, %3 ]
  %11 = icmp ult i32 %1, 128
  %12 = trunc i32 %1 to i8
  br i1 %11, label %13, label %15

13:                                               ; preds = %_ZN6google8protobuf2io19EpsCopyOutputStream11EnsureSpaceEPh.exit.i
  store i8 %12, ptr %.0.i.i, align 1
  %14 = getelementptr inbounds i8, ptr %.0.i.i, i64 1
  br label %_ZN6google8protobuf2io17CodedOutputStream13WriteVarint32Ej.exit

15:                                               ; preds = %_ZN6google8protobuf2io19EpsCopyOutputStream11EnsureSpaceEPh.exit.i
  %16 = or i8 %12, -128
  store i8 %16, ptr %.0.i.i, align 1
  %17 = lshr i32 %1, 7
  %18 = icmp ult i32 %1, 16384
  br i1 %18, label %19, label %23

19:                                               ; preds = %15
  %20 = trunc nuw nsw i32 %17 to i8
  %21 = getelementptr inbounds i8, ptr %.0.i.i, i64 1
  store i8 %20, ptr %21, align 1
  %22 = getelementptr inbounds i8, ptr %.0.i.i, i64 2
  br label %_ZN6google8protobuf2io17CodedOutputStream13WriteVarint32Ej.exit

23:                                               ; preds = %15
  %24 = getelementptr inbounds i8, ptr %.0.i.i, i64 1
  br label %25

25:                                               ; preds = %25, %23
  %.023.i.i = phi ptr [ %24, %23 ], [ %29, %25 ]
  %.022.i.i = phi i32 [ %17, %23 ], [ %28, %25 ]
  %26 = trunc i32 %.022.i.i to i8
  %27 = or i8 %26, -128
  store i8 %27, ptr %.023.i.i, align 1
  %28 = lshr i32 %.022.i.i, 7
  %29 = getelementptr inbounds i8, ptr %.023.i.i, i64 1
  %30 = icmp ugt i32 %.022.i.i, 16383
  br i1 %30, label %25, label %31, !llvm.loop !6

31:                                               ; preds = %25
  %32 = trunc nuw nsw i32 %28 to i8
  %33 = getelementptr inbounds i8, ptr %.023.i.i, i64 2
  store i8 %32, ptr %29, align 1
  br label %_ZN6google8protobuf2io17CodedOutputStream13WriteVarint32Ej.exit

_ZN6google8protobuf2io17CodedOutputStream13WriteVarint32Ej.exit: ; preds = %13, %19, %31
  %.0.i1.i = phi ptr [ %14, %13 ], [ %22, %19 ], [ %33, %31 ]
  store ptr %.0.i1.i, ptr %6, align 8
  %34 = load ptr, ptr %4, align 8
  %35 = sext i32 %2 to i64
  %36 = getelementptr inbounds i8, ptr %34, i64 64
  %37 = load ptr, ptr %36, align 8
  %38 = load ptr, ptr %34, align 8
  %.not.i.i2 = icmp ugt ptr %38, %37
  br i1 %.not.i.i2, label %_ZN6google8protobuf2io19EpsCopyOutputStream11EnsureSpaceEPh.exit.i3, label %39

39:                                               ; preds = %_ZN6google8protobuf2io17CodedOutputStream13WriteVarint32Ej.exit
  %40 = tail call noundef ptr @_ZN6google8protobuf2io19EpsCopyOutputStream19EnsureSpaceFallbackEPh(ptr noundef nonnull align 8 dereferenceable(59) %34, ptr noundef %37)
  br label %_ZN6google8protobuf2io19EpsCopyOutputStream11EnsureSpaceEPh.exit.i3

_ZN6google8protobuf2io19EpsCopyOutputStream11EnsureSpaceEPh.exit.i3: ; preds = %39, %_ZN6google8protobuf2io17CodedOutputStream13WriteVarint32Ej.exit
  %.0.i.i4 = phi ptr [ %40, %39 ], [ %37, %_ZN6google8protobuf2io17CodedOutputStream13WriteVarint32Ej.exit ]
  %41 = icmp ult i32 %2, 128
  %42 = trunc i32 %2 to i8
  br i1 %41, label %43, label %45

43:                                               ; preds = %_ZN6google8protobuf2io19EpsCopyOutputStream11EnsureSpaceEPh.exit.i3
  store i8 %42, ptr %.0.i.i4, align 1
  %44 = getelementptr inbounds i8, ptr %.0.i.i4, i64 1
  br label %_ZN6google8protobuf2io17CodedOutputStream13WriteVarint64Em.exit

45:                                               ; preds = %_ZN6google8protobuf2io19EpsCopyOutputStream11EnsureSpaceEPh.exit.i3
  %46 = or i8 %42, -128
  store i8 %46, ptr %.0.i.i4, align 1
  %47 = lshr i64 %35, 7
  %48 = icmp ult i32 %2, 16384
  br i1 %48, label %49, label %53

49:                                               ; preds = %45
  %50 = trunc nuw nsw i64 %47 to i8
  %51 = getelementptr inbounds i8, ptr %.0.i.i4, i64 1
  store i8 %50, ptr %51, align 1
  %52 = getelementptr inbounds i8, ptr %.0.i.i4, i64 2
  br label %_ZN6google8protobuf2io17CodedOutputStream13WriteVarint64Em.exit

53:                                               ; preds = %45
  %54 = getelementptr inbounds i8, ptr %.0.i.i4, i64 1
  br label %55

55:                                               ; preds = %55, %53
  %.023.i.i5 = phi ptr [ %54, %53 ], [ %59, %55 ]
  %.022.i.i6 = phi i64 [ %47, %53 ], [ %58, %55 ]
  %56 = trunc i64 %.022.i.i6 to i8
  %57 = or i8 %56, -128
  store i8 %57, ptr %.023.i.i5, align 1
  %58 = lshr i64 %.022.i.i6, 7
  %59 = getelementptr inbounds i8, ptr %.023.i.i5, i64 1
  %60 = icmp ugt i64 %.022.i.i6, 16383
  br i1 %60, label %55, label %61, !llvm.loop !7

61:                                               ; preds = %55
  %62 = trunc nuw nsw i64 %58 to i8
  %63 = getelementptr inbounds i8, ptr %.023.i.i5, i64 2
  store i8 %62, ptr %59, align 1
  br label %_ZN6google8protobuf2io17CodedOutputStream13WriteVarint64Em.exit

_ZN6google8protobuf2io17CodedOutputStream13WriteVarint64Em.exit: ; preds = %43, %49, %61
  %.0.i1.i7 = phi ptr [ %44, %43 ], [ %52, %49 ], [ %63, %61 ]
  store ptr %.0.i1.i7, ptr %36, align 8
  ret void
}